#include <math.h>
#include <stdio.h>
#include <stdlib.h>
#include <string.h>
#define LEN 100
#define ASCII 100
#define MAX_N 100
#define MAX_N 100
#define L 100
#define MAX 100
#define ASC 100
#define null 0
#define Len 100
#define M 100
#define SUM 100
#define NUMBER 100
#define SIZE 100
#define N 100
#define Max 100
#define X 100
#define Y 100
#define A 100
#define MAXN 100
#define MAXSIZE 100

void main()
{
	int n,a[MAX],i,j,k;

	scanf("%d",&n);
	for(i=0;i<n;i++){
		scanf("%d",&a[i]);
		if(i==0)
			printf("%d",a[i]);
		else{
			k=0;
			for(j=0;j<i;j++){
				if(a[j]==a[i])
					k=1;
			}
			if(k==0)
				printf(",%d",a[i]);
		}
	}
}